; Function Attrs: nounwind uwtable
define void @Java_sun_nio_ch_Net_listen(ptr noundef %0, ptr nocapture noundef readnone %1, ptr noundef %2, i32 noundef %3) local_unnamed_addr #0 {
  %5 = tail call i32 @fdval(ptr noundef %0, ptr noundef %2) #7
  %6 = tail call i32 @listen(i32 noundef %5, i32 noundef %3) #7
  %7 = icmp slt i32 %6, 0
  br i1 %7, label %8, label %handleSocketError.exit

8:                                                ; preds = %4
  %9 = tail call ptr @__errno_location() #6
  %10 = load i32, ptr %9, align 4
  switch i32 %10, label %14 [
    i32 115, label %handleSocketError.exit
    i32 71, label %15
    i32 111, label %11
    i32 110, label %11
    i32 107, label %11
    i32 113, label %12
    i32 98, label %13
    i32 99, label %13
    i32 13, label %13
  ]

11:                                               ; preds = %8, %8, %8
  br label %15

12:                                               ; preds = %8
  br label %15

13:                                               ; preds = %8, %8, %8
  br label %15

14:                                               ; preds = %8
  br label %15

15:                                               ; preds = %14, %13, %12, %11, %8
  %.0.i.i = phi ptr [ @.str.3, %14 ], [ @.str.17, %13 ], [ @.str.16, %12 ], [ @.str.15, %11 ], [ @.str.14, %8 ]
  tail call void @JNU_ThrowByNameWithLastError(ptr noundef %0, ptr noundef nonnull %.0.i.i, ptr noundef nonnull @.str.18) #7
  br label %handleSocketError.exit

handleSocketError.exit:                           ; preds = %15, %8, %4
  ret void
}